; Function Attrs: nounwind uwtable
define ptr @l_ForM_forIn___rarg(ptr noundef %0, ptr noundef %1, ptr noundef %2, ptr noundef %3, ptr noundef %4) #0 {
  %6 = ptrtoint ptr %0 to i64
  %7 = and i64 %6, 1
  %.not = icmp eq i64 %7, 0
  br i1 %.not, label %8, label %lean_inc.exit22

8:                                                ; preds = %5
  %.val.i = load i32, ptr %0, align 4, !tbaa !4
  %9 = icmp sgt i32 %.val.i, 0
  br i1 %9, label %10, label %12, !prof !13

10:                                               ; preds = %8
  %11 = add nuw i32 %.val.i, 1
  store i32 %11, ptr %0, align 4, !tbaa !4
  br label %lean_inc.exit22

12:                                               ; preds = %8
  %.not.i = icmp eq i32 %.val.i, 0
  br i1 %.not.i, label %lean_inc.exit22, label %13

13:                                               ; preds = %12
  tail call void @lean_inc_ref_cold(ptr noundef nonnull %0) #3
  br label %lean_inc.exit22

lean_inc.exit22:                                  ; preds = %13, %12, %10, %5
  tail call void @lean_inc_heartbeat() #3
  %14 = tail call noalias ptr @mi_malloc_small(i64 noundef 40) #3
  %15 = icmp eq ptr %14, null
  br i1 %15, label %16, label %lean_alloc_closure.exit

16:                                               ; preds = %lean_inc.exit22
  tail call void @lean_internal_panic_out_of_memory() #4
  unreachable

lean_alloc_closure.exit:                          ; preds = %lean_inc.exit22
  %17 = getelementptr inbounds nuw i8, ptr %14, i64 4
  store i32 1, ptr %14, align 4, !tbaa !4
  store i32 -184549336, ptr %17, align 4
  %18 = getelementptr inbounds nuw i8, ptr %14, i64 8
  store ptr @l_ForM_forIn___rarg___lambda__2, ptr %18, align 8, !tbaa !9
  %19 = getelementptr inbounds nuw i8, ptr %14, i64 16
  store i16 4, ptr %19, align 8, !tbaa !11
  %20 = getelementptr inbounds nuw i8, ptr %14, i64 18
  store i16 2, ptr %20, align 2, !tbaa !11
  %21 = getelementptr inbounds nuw i8, ptr %14, i64 24
  store ptr %0, ptr %21, align 8, !tbaa !9
  %22 = getelementptr inbounds nuw i8, ptr %14, i64 32
  store ptr %4, ptr %22, align 8, !tbaa !9
  %23 = getelementptr inbounds nuw i8, ptr %0, i64 16
  %24 = load ptr, ptr %23, align 8, !tbaa !9
  %25 = ptrtoint ptr %24 to i64
  %26 = and i64 %25, 1
  %.not30 = icmp eq i64 %26, 0
  br i1 %.not30, label %27, label %lean_inc.exit21

27:                                               ; preds = %lean_alloc_closure.exit
  %.val.i23 = load i32, ptr %24, align 4, !tbaa !4
  %28 = icmp sgt i32 %.val.i23, 0
  br i1 %28, label %29, label %31, !prof !13

29:                                               ; preds = %27
  %30 = add nuw i32 %.val.i23, 1
  store i32 %30, ptr %24, align 4, !tbaa !4
  br label %lean_inc.exit21

31:                                               ; preds = %27
  %.not.i24 = icmp eq i32 %.val.i23, 0
  br i1 %.not.i24, label %lean_inc.exit21, label %32

32:                                               ; preds = %31
  tail call void @lean_inc_ref_cold(ptr noundef nonnull %24) #3
  br label %lean_inc.exit21

lean_inc.exit21:                                  ; preds = %32, %31, %29, %lean_alloc_closure.exit
  br i1 %.not, label %33, label %lean_inc.exit

33:                                               ; preds = %lean_inc.exit21
  %.val.i26 = load i32, ptr %0, align 4, !tbaa !4
  %34 = icmp sgt i32 %.val.i26, 0
  br i1 %34, label %35, label %37, !prof !13

35:                                               ; preds = %33
  %36 = add nuw i32 %.val.i26, 1
  store i32 %36, ptr %0, align 4, !tbaa !4
  br label %lean_inc.exit

37:                                               ; preds = %33
  %.not.i27 = icmp eq i32 %.val.i26, 0
  br i1 %.not.i27, label %lean_inc.exit, label %38

38:                                               ; preds = %37
  tail call void @lean_inc_ref_cold(ptr noundef nonnull %0) #3
  br label %lean_inc.exit

lean_inc.exit:                                    ; preds = %38, %37, %35, %lean_inc.exit21
  %39 = tail call ptr @l_ExceptT_instMonad___rarg(ptr noundef nonnull %0) #3
  %40 = tail call ptr @l_StateT_instMonad___rarg(ptr noundef %39)
  %41 = tail call ptr @lean_apply_4(ptr noundef %1, ptr noundef nonnull %40, ptr noundef %2, ptr noundef nonnull %14, ptr noundef %3) #3
  tail call void @lean_inc_heartbeat() #3
  %42 = tail call noalias ptr @mi_malloc_small(i64 noundef 32) #3
  %43 = icmp eq ptr %42, null
  br i1 %43, label %44, label %lean_alloc_closure.exit29

44:                                               ; preds = %lean_inc.exit
  tail call void @lean_internal_panic_out_of_memory() #4
  unreachable

lean_alloc_closure.exit29:                        ; preds = %lean_inc.exit
  %45 = getelementptr inbounds nuw i8, ptr %42, i64 4
  store i32 1, ptr %42, align 4, !tbaa !4
  store i32 -184549344, ptr %45, align 4
  %46 = getelementptr inbounds nuw i8, ptr %42, i64 8
  store ptr @l_ForM_forIn___rarg___lambda__3, ptr %46, align 8, !tbaa !9
  %47 = getelementptr inbounds nuw i8, ptr %42, i64 16
  store i16 2, ptr %47, align 8, !tbaa !11
  %48 = getelementptr inbounds nuw i8, ptr %42, i64 18
  store i16 1, ptr %48, align 2, !tbaa !11
  %49 = getelementptr inbounds nuw i8, ptr %42, i64 24
  store ptr %0, ptr %49, align 8, !tbaa !9
  %50 = tail call ptr @lean_apply_4(ptr noundef %24, ptr noundef nonnull inttoptr (i64 1 to ptr), ptr noundef nonnull inttoptr (i64 1 to ptr), ptr noundef %41, ptr noundef nonnull %42) #3
  ret ptr %50
}